; Function Attrs: mustprogress uwtable
define hidden noundef nonnull align 8 dereferenceable(40) ptr @_ZN2cv3dnn14dnn4_v2024052120getLayerFactoryMutexEv() local_unnamed_addr #3 personality ptr @__gxx_personality_v0 {
  %1 = load volatile ptr, ptr @_ZZN2cv3dnn14dnn4_v2024052120getLayerFactoryMutexEvE8instance, align 8
  %2 = icmp eq ptr %1, null
  br i1 %2, label %3, label %18

3:                                                ; preds = %0
  %4 = tail call noundef nonnull align 8 dereferenceable(40) ptr @_ZN2cv3dnn14dnn4_v2024052122getInitializationMutexEv()
  %5 = tail call noundef i32 @pthread_mutex_lock(ptr noundef nonnull %4) #15
  %.not.i.i = icmp eq i32 %5, 0
  br i1 %.not.i.i, label %_ZNSt10lock_guardISt15recursive_mutexEC2ERS0_.exit, label %6

6:                                                ; preds = %3
  tail call void @_ZSt20__throw_system_errori(i32 noundef %5) #16
  unreachable

_ZNSt10lock_guardISt15recursive_mutexEC2ERS0_.exit: ; preds = %3
  %7 = load volatile ptr, ptr @_ZZN2cv3dnn14dnn4_v2024052120getLayerFactoryMutexEvE8instance, align 8
  %8 = icmp eq ptr %7, null
  br i1 %8, label %9, label %16

9:                                                ; preds = %_ZNSt10lock_guardISt15recursive_mutexEC2ERS0_.exit
  %10 = invoke noalias noundef nonnull dereferenceable(40) ptr @_Znwm(i64 noundef 40) #17
          to label %11 unwind label %13

11:                                               ; preds = %9
  %12 = getelementptr inbounds i8, ptr %10, i64 16
  tail call void @llvm.memset.p0.i64(ptr noundef nonnull align 8 dereferenceable(40) %10, i8 0, i64 40, i1 false)
  store i32 1, ptr %12, align 8
  store volatile ptr %10, ptr @_ZZN2cv3dnn14dnn4_v2024052120getLayerFactoryMutexEvE8instance, align 8
  br label %16

13:                                               ; preds = %9
  %14 = landingpad { ptr, i32 }
          cleanup
  %15 = tail call noundef i32 @pthread_mutex_unlock(ptr noundef nonnull %4) #15
  resume { ptr, i32 } %14

16:                                               ; preds = %11, %_ZNSt10lock_guardISt15recursive_mutexEC2ERS0_.exit
  %17 = tail call noundef i32 @pthread_mutex_unlock(ptr noundef nonnull %4) #15
  br label %18

18:                                               ; preds = %16, %0
  %19 = load volatile ptr, ptr @_ZZN2cv3dnn14dnn4_v2024052120getLayerFactoryMutexEvE8instance, align 8
  ret ptr %19
}